target datalayout = "e-m:e-p270:32:32-p271:32:32-p272:64:64-i64:64-i128:128-f80:128-n8:16:32:64-S128"
target triple = "x86_64-pc-linux-gnu"

%struct.FunctionCallInfoBaseData = type { ptr, ptr, ptr, i32, i8, i16, [0 x %struct.NullableDatum] }
%struct.NullableDatum = type { i64, i8 }

; Function Attrs: inlinehint nounwind uwtable
define internal ptr @DatumGetPointer(i64 noundef %0) #2 {
  %2 = alloca i64, align 8
  store i64 %0, ptr %2, align 8
  %3 = load i64, ptr %2, align 8
  %4 = inttoptr i64 %3 to ptr
  ret ptr %4
}

; Function Attrs: inlinehint nounwind uwtable
define internal i64 @Int32GetDatum(i32 noundef %0) #2 {
  %2 = alloca i32, align 4
  store i32 %0, ptr %2, align 4
  %3 = load i32, ptr %2, align 4
  %4 = sext i32 %3 to i64
  ret i64 %4
}

; Function Attrs: nounwind uwtable
define internal i32 @mic2euc_jp(ptr noundef %0, ptr noundef %1, i32 noundef %2, i1 noundef zeroext %3) #0 {
  %5 = alloca ptr, align 8
  %6 = alloca ptr, align 8
  %7 = alloca i32, align 4
  %8 = alloca i8, align 1
  %9 = alloca ptr, align 8
  %10 = alloca i32, align 4
  %11 = alloca i32, align 4
  store ptr %0, ptr %5, align 8
  store ptr %1, ptr %6, align 8
  store i32 %2, ptr %7, align 4
  %12 = zext i1 %3 to i8
  store i8 %12, ptr %8, align 1
  call void @llvm.lifetime.start.p0(i64 8, ptr %9) #5
  %13 = load ptr, ptr %5, align 8
  store ptr %13, ptr %9, align 8
  call void @llvm.lifetime.start.p0(i64 4, ptr %10) #5
  call void @llvm.lifetime.start.p0(i64 4, ptr %11) #5
  br label %14

14:                                               ; preds = %108, %36, %4
  %15 = load i32, ptr %7, align 4
  %16 = icmp sgt i32 %15, 0
  br i1 %16, label %17, label %116

17:                                               ; preds = %14
  %18 = load ptr, ptr %5, align 8
  %19 = load i8, ptr %18, align 1
  %20 = zext i8 %19 to i32
  store i32 %20, ptr %10, align 4
  %21 = load i32, ptr %10, align 4
  %22 = trunc i32 %21 to i8
  %23 = zext i8 %22 to i32
  %24 = and i32 %23, 128
  %25 = icmp ne i32 %24, 0
  br i1 %25, label %45, label %26

26:                                               ; preds = %17
  %27 = load i32, ptr %10, align 4
  %28 = icmp eq i32 %27, 0
  br i1 %28, label %29, label %36

29:                                               ; preds = %26
  %30 = load i8, ptr %8, align 1, !range !3, !noundef !4
  %31 = trunc i8 %30 to i1
  br i1 %31, label %32, label %33

32:                                               ; preds = %29
  br label %116

33:                                               ; preds = %29
  %34 = load ptr, ptr %5, align 8
  %35 = load i32, ptr %7, align 4
  call void @report_invalid_encoding(i32 noundef 7, ptr noundef %34, i32 noundef %35) #6
  unreachable

36:                                               ; preds = %26
  %37 = load i32, ptr %10, align 4
  %38 = trunc i32 %37 to i8
  %39 = load ptr, ptr %6, align 8
  %40 = getelementptr inbounds nuw i8, ptr %39, i32 1
  store ptr %40, ptr %6, align 8
  store i8 %38, ptr %39, align 1
  %41 = load ptr, ptr %5, align 8
  %42 = getelementptr inbounds nuw i8, ptr %41, i32 1
  store ptr %42, ptr %5, align 8
  %43 = load i32, ptr %7, align 4
  %44 = add i32 %43, -1
  store i32 %44, ptr %7, align 4
  br label %14, !llvm.loop !9

45:                                               ; preds = %17
  %46 = load ptr, ptr %5, align 8
  %47 = load i32, ptr %7, align 4
  %48 = call i32 @pg_encoding_verifymbchar(i32 noundef 7, ptr noundef %46, i32 noundef %47)
  store i32 %48, ptr %11, align 4
  %49 = load i32, ptr %11, align 4
  %50 = icmp slt i32 %49, 0
  br i1 %50, label %51, label %58

51:                                               ; preds = %45
  %52 = load i8, ptr %8, align 1, !range !3, !noundef !4
  %53 = trunc i8 %52 to i1
  br i1 %53, label %54, label %55

54:                                               ; preds = %51
  br label %116

55:                                               ; preds = %51
  %56 = load ptr, ptr %5, align 8
  %57 = load i32, ptr %7, align 4
  call void @report_invalid_encoding(i32 noundef 7, ptr noundef %56, i32 noundef %57) #6
  unreachable

58:                                               ; preds = %45
  %59 = load i32, ptr %10, align 4
  %60 = icmp eq i32 %59, 137
  br i1 %60, label %61, label %69

61:                                               ; preds = %58
  %62 = load ptr, ptr %6, align 8
  %63 = getelementptr inbounds nuw i8, ptr %62, i32 1
  store ptr %63, ptr %6, align 8
  store i8 -114, ptr %62, align 1
  %64 = load ptr, ptr %5, align 8
  %65 = getelementptr inbounds i8, ptr %64, i64 1
  %66 = load i8, ptr %65, align 1
  %67 = load ptr, ptr %6, align 8
  %68 = getelementptr inbounds nuw i8, ptr %67, i32 1
  store ptr %68, ptr %6, align 8
  store i8 %66, ptr %67, align 1
  br label %108

69:                                               ; preds = %58
  %70 = load i32, ptr %10, align 4
  %71 = icmp eq i32 %70, 148
  br i1 %71, label %72, label %85

72:                                               ; preds = %69
  %73 = load ptr, ptr %6, align 8
  %74 = getelementptr inbounds nuw i8, ptr %73, i32 1
  store ptr %74, ptr %6, align 8
  store i8 -113, ptr %73, align 1
  %75 = load ptr, ptr %5, align 8
  %76 = getelementptr inbounds i8, ptr %75, i64 1
  %77 = load i8, ptr %76, align 1
  %78 = load ptr, ptr %6, align 8
  %79 = getelementptr inbounds nuw i8, ptr %78, i32 1
  store ptr %79, ptr %6, align 8
  store i8 %77, ptr %78, align 1
  %80 = load ptr, ptr %5, align 8
  %81 = getelementptr inbounds i8, ptr %80, i64 2
  %82 = load i8, ptr %81, align 1
  %83 = load ptr, ptr %6, align 8
  %84 = getelementptr inbounds nuw i8, ptr %83, i32 1
  store ptr %84, ptr %6, align 8
  store i8 %82, ptr %83, align 1
  br label %107

85:                                               ; preds = %69
  %86 = load i32, ptr %10, align 4
  %87 = icmp eq i32 %86, 146
  br i1 %87, label %88, label %99

88:                                               ; preds = %85
  %89 = load ptr, ptr %5, align 8
  %90 = getelementptr inbounds i8, ptr %89, i64 1
  %91 = load i8, ptr %90, align 1
  %92 = load ptr, ptr %6, align 8
  %93 = getelementptr inbounds nuw i8, ptr %92, i32 1
  store ptr %93, ptr %6, align 8
  store i8 %91, ptr %92, align 1
  %94 = load ptr, ptr %5, align 8
  %95 = getelementptr inbounds i8, ptr %94, i64 2
  %96 = load i8, ptr %95, align 1
  %97 = load ptr, ptr %6, align 8
  %98 = getelementptr inbounds nuw i8, ptr %97, i32 1
  store ptr %98, ptr %6, align 8
  store i8 %96, ptr %97, align 1
  br label %106

99:                                               ; preds = %85
  %100 = load i8, ptr %8, align 1, !range !3, !noundef !4
  %101 = trunc i8 %100 to i1
  br i1 %101, label %102, label %103

102:                                              ; preds = %99
  br label %116

103:                                              ; preds = %99
  %104 = load ptr, ptr %5, align 8
  %105 = load i32, ptr %7, align 4
  call void @report_untranslatable_char(i32 noundef 7, i32 noundef 1, ptr noundef %104, i32 noundef %105) #6
  unreachable

106:                                              ; preds = %88
  br label %107

107:                                              ; preds = %106, %72
  br label %108

108:                                              ; preds = %107, %61
  %109 = load i32, ptr %11, align 4
  %110 = load ptr, ptr %5, align 8
  %111 = sext i32 %109 to i64
  %112 = getelementptr inbounds i8, ptr %110, i64 %111
  store ptr %112, ptr %5, align 8
  %113 = load i32, ptr %11, align 4
  %114 = load i32, ptr %7, align 4
  %115 = sub i32 %114, %113
  store i32 %115, ptr %7, align 4
  br label %14, !llvm.loop !9

116:                                              ; preds = %102, %54, %32, %14
  %117 = load ptr, ptr %6, align 8
  store i8 0, ptr %117, align 1
  %118 = load ptr, ptr %5, align 8
  %119 = load ptr, ptr %9, align 8
  %120 = ptrtoint ptr %118 to i64
  %121 = ptrtoint ptr %119 to i64
  %122 = sub i64 %120, %121
  %123 = trunc i64 %122 to i32
  call void @llvm.lifetime.end.p0(i64 4, ptr %11) #5
  call void @llvm.lifetime.end.p0(i64 4, ptr %10) #5
  call void @llvm.lifetime.end.p0(i64 8, ptr %9) #5
  ret i32 %123
}

; Function Attrs: inlinehint nounwind uwtable
define internal zeroext i1 @DatumGetBool(i64 noundef %0) #2 {
  %2 = alloca i64, align 8
  store i64 %0, ptr %2, align 8
  %3 = load i64, ptr %2, align 8
  %4 = icmp ne i64 %3, 0
  ret i1 %4
}

; Function Attrs: inlinehint nounwind uwtable
define internal i32 @DatumGetInt32(i64 noundef %0) #2 {
  %2 = alloca i64, align 8
  store i64 %0, ptr %2, align 8
  %3 = load i64, ptr %2, align 8
  %4 = trunc i64 %3 to i32
  ret i32 %4
}

; Function Attrs: inlinehint nounwind uwtable
define internal ptr @DatumGetCString(i64 noundef %0) #2 {
  %2 = alloca i64, align 8
  store i64 %0, ptr %2, align 8
  %3 = load i64, ptr %2, align 8
  %4 = call ptr @DatumGetPointer(i64 noundef %3)
  ret ptr %4
}

; Function Attrs: nounwind uwtable
define i64 @mic_to_euc_jp(ptr noundef %0) #0 {
  %2 = alloca ptr, align 8
  %3 = alloca ptr, align 8
  %4 = alloca ptr, align 8
  %5 = alloca i32, align 4
  %6 = alloca i8, align 1
  %7 = alloca i32, align 4
  store ptr %0, ptr %2, align 8
  call void @llvm.lifetime.start.p0(i64 8, ptr %3) #5
  %8 = load ptr, ptr %2, align 8
  %9 = getelementptr inbounds nuw %struct.FunctionCallInfoBaseData, ptr %8, i32 0, i32 6
  %10 = getelementptr inbounds [0 x %struct.NullableDatum], ptr %9, i64 0, i64 2
  %11 = getelementptr inbounds nuw %struct.NullableDatum, ptr %10, i32 0, i32 0
  %12 = load i64, ptr %11, align 8
  %13 = call ptr @DatumGetCString(i64 noundef %12)
  store ptr %13, ptr %3, align 8
  call void @llvm.lifetime.start.p0(i64 8, ptr %4) #5
  %14 = load ptr, ptr %2, align 8
  %15 = getelementptr inbounds nuw %struct.FunctionCallInfoBaseData, ptr %14, i32 0, i32 6
  %16 = getelementptr inbounds [0 x %struct.NullableDatum], ptr %15, i64 0, i64 3
  %17 = getelementptr inbounds nuw %struct.NullableDatum, ptr %16, i32 0, i32 0
  %18 = load i64, ptr %17, align 8
  %19 = call ptr @DatumGetCString(i64 noundef %18)
  store ptr %19, ptr %4, align 8
  call void @llvm.lifetime.start.p0(i64 4, ptr %5) #5
  %20 = load ptr, ptr %2, align 8
  %21 = getelementptr inbounds nuw %struct.FunctionCallInfoBaseData, ptr %20, i32 0, i32 6
  %22 = getelementptr inbounds [0 x %struct.NullableDatum], ptr %21, i64 0, i64 4
  %23 = getelementptr inbounds nuw %struct.NullableDatum, ptr %22, i32 0, i32 0
  %24 = load i64, ptr %23, align 8
  %25 = call i32 @DatumGetInt32(i64 noundef %24)
  store i32 %25, ptr %5, align 4
  call void @llvm.lifetime.start.p0(i64 1, ptr %6) #5
  %26 = load ptr, ptr %2, align 8
  %27 = getelementptr inbounds nuw %struct.FunctionCallInfoBaseData, ptr %26, i32 0, i32 6
  %28 = getelementptr inbounds [0 x %struct.NullableDatum], ptr %27, i64 0, i64 5
  %29 = getelementptr inbounds nuw %struct.NullableDatum, ptr %28, i32 0, i32 0
  %30 = load i64, ptr %29, align 8
  %31 = call zeroext i1 @DatumGetBool(i64 noundef %30)
  %32 = zext i1 %31 to i8
  store i8 %32, ptr %6, align 1
  call void @llvm.lifetime.start.p0(i64 4, ptr %7) #5
  %33 = load ptr, ptr %2, align 8
  %34 = getelementptr inbounds nuw %struct.FunctionCallInfoBaseData, ptr %33, i32 0, i32 6
  %35 = getelementptr inbounds [0 x %struct.NullableDatum], ptr %34, i64 0, i64 0
  %36 = getelementptr inbounds nuw %struct.NullableDatum, ptr %35, i32 0, i32 0
  %37 = load i64, ptr %36, align 8
  %38 = call i32 @DatumGetInt32(i64 noundef %37)
  %39 = load ptr, ptr %2, align 8
  %40 = getelementptr inbounds nuw %struct.FunctionCallInfoBaseData, ptr %39, i32 0, i32 6
  %41 = getelementptr inbounds [0 x %struct.NullableDatum], ptr %40, i64 0, i64 1
  %42 = getelementptr inbounds nuw %struct.NullableDatum, ptr %41, i32 0, i32 0
  %43 = load i64, ptr %42, align 8
  %44 = call i32 @DatumGetInt32(i64 noundef %43)
  %45 = load ptr, ptr %2, align 8
  %46 = getelementptr inbounds nuw %struct.FunctionCallInfoBaseData, ptr %45, i32 0, i32 6
  %47 = getelementptr inbounds [0 x %struct.NullableDatum], ptr %46, i64 0, i64 4
  %48 = getelementptr inbounds nuw %struct.NullableDatum, ptr %47, i32 0, i32 0
  %49 = load i64, ptr %48, align 8
  %50 = call i32 @DatumGetInt32(i64 noundef %49)
  call void @check_encoding_conversion_args(i32 noundef %38, i32 noundef %44, i32 noundef %50, i32 noundef 7, i32 noundef 1)
  %51 = load ptr, ptr %3, align 8
  %52 = load ptr, ptr %4, align 8
  %53 = load i32, ptr %5, align 4
  %54 = load i8, ptr %6, align 1, !range !3, !noundef !4
  %55 = trunc i8 %54 to i1
  %56 = call i32 @mic2euc_jp(ptr noundef %51, ptr noundef %52, i32 noundef %53, i1 noundef zeroext %55)
  store i32 %56, ptr %7, align 4
  %57 = load i32, ptr %7, align 4
  %58 = call i64 @Int32GetDatum(i32 noundef %57)
  call void @llvm.lifetime.end.p0(i64 4, ptr %7) #5
  call void @llvm.lifetime.end.p0(i64 1, ptr %6) #5
  call void @llvm.lifetime.end.p0(i64 4, ptr %5) #5
  call void @llvm.lifetime.end.p0(i64 8, ptr %4) #5
  call void @llvm.lifetime.end.p0(i64 8, ptr %3) #5
  ret i64 %58
}