; Function Attrs: nounwind uwtable
define range(i64 -2147483648, 2147483648) i64 @mic_to_euc_jp(ptr noundef readonly captures(none) %0) local_unnamed_addr #1 {
  %2 = getelementptr inbounds nuw i8, ptr %0, i64 32
  %3 = getelementptr inbounds nuw i8, ptr %0, i64 64
  %4 = load i64, ptr %3, align 8
  %5 = inttoptr i64 %4 to ptr
  %6 = getelementptr inbounds nuw i8, ptr %0, i64 80
  %7 = load i64, ptr %6, align 8
  %8 = inttoptr i64 %7 to ptr
  %9 = getelementptr inbounds nuw i8, ptr %0, i64 96
  %10 = load i64, ptr %9, align 8
  %11 = trunc i64 %10 to i32
  %12 = getelementptr inbounds nuw i8, ptr %0, i64 112
  %13 = load i64, ptr %12, align 8
  %.not = icmp eq i64 %13, 0
  %14 = load i64, ptr %2, align 8
  %15 = trunc i64 %14 to i32
  %16 = getelementptr inbounds nuw i8, ptr %0, i64 48
  %17 = load i64, ptr %16, align 8
  %18 = trunc i64 %17 to i32
  tail call void @check_encoding_conversion_args(i32 noundef %15, i32 noundef %18, i32 noundef %11, i32 noundef 7, i32 noundef 1) #4
  %19 = icmp sgt i32 %11, 0
  br i1 %19, label %.lr.ph.i, label %mic2euc_jp.exit

.lr.ph.i:                                         ; preds = %1, %.backedge.i
  %.059.i = phi ptr [ %.0.be.i, %.backedge.i ], [ %5, %1 ]
  %.04258.i = phi ptr [ %.042.be.i, %.backedge.i ], [ %8, %1 ]
  %.04357.i = phi i32 [ %.043.be.i, %.backedge.i ], [ %11, %1 ]
  %20 = load i8, ptr %.059.i, align 1
  %.not.i = icmp sgt i8 %20, -1
  br i1 %.not.i, label %21, label %30

21:                                               ; preds = %.lr.ph.i
  %22 = icmp eq i8 %20, 0
  br i1 %22, label %23, label %25

23:                                               ; preds = %21
  br i1 %.not, label %24, label %mic2euc_jp.exit

24:                                               ; preds = %23
  tail call void @report_invalid_encoding(i32 noundef 7, ptr noundef nonnull %.059.i, i32 noundef %.04357.i) #5
  unreachable

25:                                               ; preds = %21
  %26 = getelementptr inbounds nuw i8, ptr %.04258.i, i64 1
  store i8 %20, ptr %.04258.i, align 1
  %27 = getelementptr inbounds nuw i8, ptr %.059.i, i64 1
  %28 = add nsw i32 %.04357.i, -1
  br label %.backedge.i

.backedge.i:                                      ; preds = %58, %25
  %.043.be.i = phi i32 [ %61, %58 ], [ %28, %25 ]
  %.042.be.i = phi ptr [ %.1.i, %58 ], [ %26, %25 ]
  %.0.be.i = phi ptr [ %60, %58 ], [ %27, %25 ]
  %29 = icmp sgt i32 %.043.be.i, 0
  br i1 %29, label %.lr.ph.i, label %mic2euc_jp.exit, !llvm.loop !7

30:                                               ; preds = %.lr.ph.i
  %31 = tail call i32 @pg_encoding_verifymbchar(i32 noundef 7, ptr noundef nonnull %.059.i, i32 noundef %.04357.i) #4
  %32 = icmp slt i32 %31, 0
  br i1 %32, label %33, label %35

33:                                               ; preds = %30
  br i1 %.not, label %34, label %mic2euc_jp.exit

34:                                               ; preds = %33
  tail call void @report_invalid_encoding(i32 noundef 7, ptr noundef nonnull %.059.i, i32 noundef %.04357.i) #5
  unreachable

35:                                               ; preds = %30
  switch i8 %20, label %56 [
    i8 -119, label %36
    i8 -108, label %41
    i8 -110, label %49
  ]

36:                                               ; preds = %35
  %37 = getelementptr inbounds nuw i8, ptr %.04258.i, i64 1
  store i8 -114, ptr %.04258.i, align 1
  %38 = getelementptr inbounds nuw i8, ptr %.059.i, i64 1
  %39 = load i8, ptr %38, align 1
  %40 = getelementptr inbounds nuw i8, ptr %.04258.i, i64 2
  store i8 %39, ptr %37, align 1
  br label %58

41:                                               ; preds = %35
  %42 = getelementptr inbounds nuw i8, ptr %.04258.i, i64 1
  store i8 -113, ptr %.04258.i, align 1
  %43 = getelementptr inbounds nuw i8, ptr %.059.i, i64 1
  %44 = load i8, ptr %43, align 1
  %45 = getelementptr inbounds nuw i8, ptr %.04258.i, i64 2
  store i8 %44, ptr %42, align 1
  %46 = getelementptr inbounds nuw i8, ptr %.059.i, i64 2
  %47 = load i8, ptr %46, align 1
  %48 = getelementptr inbounds nuw i8, ptr %.04258.i, i64 3
  store i8 %47, ptr %45, align 1
  br label %58

49:                                               ; preds = %35
  %50 = getelementptr inbounds nuw i8, ptr %.059.i, i64 1
  %51 = load i8, ptr %50, align 1
  %52 = getelementptr inbounds nuw i8, ptr %.04258.i, i64 1
  store i8 %51, ptr %.04258.i, align 1
  %53 = getelementptr inbounds nuw i8, ptr %.059.i, i64 2
  %54 = load i8, ptr %53, align 1
  %55 = getelementptr inbounds nuw i8, ptr %.04258.i, i64 2
  store i8 %54, ptr %52, align 1
  br label %58

56:                                               ; preds = %35
  br i1 %.not, label %57, label %mic2euc_jp.exit

57:                                               ; preds = %56
  tail call void @report_untranslatable_char(i32 noundef 7, i32 noundef 1, ptr noundef nonnull %.059.i, i32 noundef %.04357.i) #5
  unreachable

58:                                               ; preds = %49, %41, %36
  %.1.i = phi ptr [ %40, %36 ], [ %48, %41 ], [ %55, %49 ]
  %59 = zext nneg i32 %31 to i64
  %60 = getelementptr inbounds nuw i8, ptr %.059.i, i64 %59
  %61 = sub nsw i32 %.04357.i, %31
  br label %.backedge.i

mic2euc_jp.exit:                                  ; preds = %.backedge.i, %1, %23, %33, %56
  %.04253.i = phi ptr [ %.04258.i, %56 ], [ %.04258.i, %33 ], [ %.04258.i, %23 ], [ %8, %1 ], [ %.042.be.i, %.backedge.i ]
  %.049.i = phi ptr [ %.059.i, %56 ], [ %.059.i, %33 ], [ %.059.i, %23 ], [ %5, %1 ], [ %.0.be.i, %.backedge.i ]
  store i8 0, ptr %.04253.i, align 1
  %62 = ptrtoint ptr %.049.i to i64
  %63 = sub i64 %62, %4
  %sext = shl i64 %63, 32
  %64 = ashr exact i64 %sext, 32
  ret i64 %64
}